target datalayout = "e-m:e-p270:32:32-p271:32:32-p272:64:64-i64:64-i128:128-f80:128-n8:16:32:64-S128"
target triple = "x86_64-pc-linux-gnu"

%struct.evp_cipher_ctx_st = type { ptr, ptr, i32, i32, [16 x i8], [16 x i8], [32 x i8], i32, ptr, i32, i32, i64, ptr, i32, i32, [32 x i8], i64, ptr, ptr }
%struct.evp_cipher_st = type { i32, i32, i32, i32, i64, i32, ptr, ptr, ptr, i32, ptr, ptr, ptr, ptr, i32, ptr, ptr, ptr, %struct.CRYPTO_REF_COUNT, ptr, ptr, ptr, ptr, ptr, ptr, ptr, ptr, ptr, ptr, ptr, ptr, ptr, ptr, ptr, ptr, ptr, ptr, ptr, ptr }
%struct.CRYPTO_REF_COUNT = type { i32 }

; Function Attrs: nounwind uwtable
define ptr @EVP_CIPHER_CTX_gettable_params(ptr noundef %0) #0 {
  %2 = alloca ptr, align 8
  %3 = alloca ptr, align 8
  %4 = alloca ptr, align 8
  %5 = alloca i32, align 4
  store ptr %0, ptr %3, align 8, !tbaa !3
  call void @llvm.lifetime.start.p0(i64 8, ptr %4) #9
  %6 = load ptr, ptr %3, align 8, !tbaa !3
  %7 = icmp ne ptr %6, null
  br i1 %7, label %8, label %31

8:                                                ; preds = %1
  %9 = load ptr, ptr %3, align 8, !tbaa !3
  %10 = getelementptr inbounds nuw %struct.evp_cipher_ctx_st, ptr %9, i32 0, i32 0
  %11 = load ptr, ptr %10, align 8, !tbaa !8
  %12 = getelementptr inbounds nuw %struct.evp_cipher_st, ptr %11, i32 0, i32 35
  %13 = load ptr, ptr %12, align 8, !tbaa !93
  %14 = icmp ne ptr %13, null
  br i1 %14, label %15, label %31

15:                                               ; preds = %8
  %16 = load ptr, ptr %3, align 8, !tbaa !3
  %17 = getelementptr inbounds nuw %struct.evp_cipher_ctx_st, ptr %16, i32 0, i32 0
  %18 = load ptr, ptr %17, align 8, !tbaa !8
  %19 = call ptr @EVP_CIPHER_get0_provider(ptr noundef %18)
  %20 = call ptr @ossl_provider_ctx(ptr noundef %19)
  store ptr %20, ptr %4, align 8, !tbaa !81
  %21 = load ptr, ptr %3, align 8, !tbaa !3
  %22 = getelementptr inbounds nuw %struct.evp_cipher_ctx_st, ptr %21, i32 0, i32 0
  %23 = load ptr, ptr %22, align 8, !tbaa !8
  %24 = getelementptr inbounds nuw %struct.evp_cipher_st, ptr %23, i32 0, i32 35
  %25 = load ptr, ptr %24, align 8, !tbaa !93
  %26 = load ptr, ptr %3, align 8, !tbaa !3
  %27 = getelementptr inbounds nuw %struct.evp_cipher_ctx_st, ptr %26, i32 0, i32 17
  %28 = load ptr, ptr %27, align 8, !tbaa !19
  %29 = load ptr, ptr %4, align 8, !tbaa !81
  %30 = call ptr %25(ptr noundef %28, ptr noundef %29)
  store ptr %30, ptr %2, align 8
  store i32 1, ptr %5, align 4
  br label %32

31:                                               ; preds = %8, %1
  store ptr null, ptr %2, align 8
  store i32 1, ptr %5, align 4
  br label %32

32:                                               ; preds = %31, %15
  call void @llvm.lifetime.end.p0(i64 8, ptr %4) #9
  %33 = load ptr, ptr %2, align 8
  ret ptr %33
}